; Function Attrs: nounwind uwtable
define hidden void @Curl_expire_done(ptr noundef %0, i32 noundef %1) local_unnamed_addr #0 {
  %3 = getelementptr inbounds nuw i8, ptr %0, i64 3584
  %4 = tail call ptr @Curl_llist_head(ptr noundef nonnull %3) #19
  %.not11.i = icmp eq ptr %4, null
  br i1 %.not11.i, label %multi_deltimeout.exit, label %.lr.ph.i

.lr.ph.i:                                         ; preds = %2, %.critedge.i
  %.0812.i = phi ptr [ %9, %.critedge.i ], [ %4, %2 ]
  %5 = tail call ptr @Curl_node_elem(ptr noundef nonnull %.0812.i) #19
  %6 = getelementptr inbounds nuw i8, ptr %5, i64 48
  %7 = load i32, ptr %6, align 8, !tbaa !231
  %.not9.i = icmp eq i32 %7, %1
  br i1 %.not9.i, label %8, label %.critedge.i

8:                                                ; preds = %.lr.ph.i
  tail call void @Curl_node_remove(ptr noundef nonnull %.0812.i) #19
  br label %multi_deltimeout.exit

.critedge.i:                                      ; preds = %.lr.ph.i
  %9 = tail call ptr @Curl_node_next(ptr noundef nonnull %.0812.i) #19
  %.not.i = icmp eq ptr %9, null
  br i1 %.not.i, label %multi_deltimeout.exit, label %.lr.ph.i, !llvm.loop !233

multi_deltimeout.exit:                            ; preds = %.critedge.i, %2, %8
  ret void
}